Certificate:
    Data:
        Version: 3 (0x2)
        Serial Number:
            91:e9:4c:0b:24:c4:be:b9
        Signature Algorithm: md5WithRSAEncryption
        Issuer: C=DE, ST=Bayern, L=Muenchen, O=Whatever it is, CN=IO::Socket::SSL Test CA
        Validity
            Not Before: Feb 21 16:21:20 2008 GMT
            Not After : Feb 20 16:21:20 2009 GMT
        Subject: C=US, ST=Some-State, O=IO::Socket::SSL Dummy Certificate, CN=IO::Socket::SSL Dummy Certificate
        Subject Public Key Info:
            Public Key Algorithm: rsaEncryption
            RSA Public Key: (512 bit)
                Modulus (512 bit):
                    00:cd:65:60:3d:8f:55:1f:7a:9e:87:a8:72:a0:53:
                    9d:e9:31:9e:bc:f1:27:d3:ba:e9:ab:ca:28:a5:b5:
                    48:a2:24:d8:ed:01:ec:ae:69:b1:91:7b:68:e6:d1:
                    15:57:7e:b0:06:62:33:d5:88:3e:fc:dc:fb:db:8a:
                    c9:9b:bb:50:9f
                Exponent: 65537 (0x10001)
        X509v3 extensions:
            X509v3 Basic Constraints: 
                CA:FALSE
            Netscape Comment: 
                OpenSSL Generated Certificate
            X509v3 Subject Key Identifier: 
                69:77:17:7C:4F:DB:25:6C:3E:F6:FB:44:A2:FB:90:53:D9:5E:B0:E4
            X509v3 Authority Key Identifier: 
                keyid:FB:58:E7:57:9D:8A:E9:C1:AF:D8:F0:58:89:E6:BE:56:9C:F7:BB:85
                DirName:/C=DE/ST=Bayern/L=Muenchen/O=Whatever it is/CN=IO::Socket::SSL Test CA
                serial:91:E9:4C:0B:24:C4:BE:B6

    Signature Algorithm: md5WithRSAEncryption
        af:ec:f2:eb:96:45:dd:6f:fd:f4:50:5b:db:ee:88:e4:08:a3:
        5b:b6:8a:12:b9:45:9e:bf:e7:80:7a:a6:74:c4:d8:4f:e6:1f:
        f9:ab:4a:06:aa:6c:8f:91:39:17:e5:b0:d9:69:c8:85:d4:a4:
        f3:f2:4a:cf:08:a3:c9:c5:10:42:58:79:47:de:07:48:ca:ac:
        38:3d:60:37:61:38:fc:76:ad:52:93:49:06:80:3d:01:f3:3f:
        9a:d1:ee:f7:91:2f:42:ed:9d:94:20:5a:40:de:4f:55:95:c6:
        84:e8:89:70:59:91:06:8c:17:a7:0a:45:06:24:10:9a:83:10:
        be:fd
-----BEGIN CERTIFICATE-----
MIIDHTCCAoagAwIBAgIJAJHpTAskxL65MA0GCSqGSIb3DQEBBAUAMGwxCzAJBgNV
BAYTAkRFMQ8wDQYDVQQIEwZCYXllcm4xETAPBgNVBAcTCE11ZW5jaGVuMRcwFQYD
VQQKEw5XaGF0ZXZlciBpdCBpczEgMB4GA1UEAxMXSU86OlNvY2tldDo6U1NMIFRl
c3QgQ0EwHhcNMDgwMjIxMTYyMTIwWhcNMDkwMjIwMTYyMTIwWjB6MQswCQYDVQQG
EwJVUzETMBEGA1UECBMKU29tZS1TdGF0ZTEqMCgGA1UEChMhSU86OlNvY2tldDo6
U1NMIER1bW15IENlcnRpZmljYXRlMSowKAYDVQQDEyFJTzo6U29ja2V0OjpTU0wg
RHVtbXkgQ2VydGlmaWNhdGUwXDANBgkqhkiG9w0BAQEFAANLADBIAkEAzWVgPY9V
H3qeh6hyoFOd6TGevPEn07rpq8oopbVIoiTY7QHsrmmxkXto5tEVV36wBmIz1Yg+
/Nz724rJm7tQnwIDAQABo4H8MIH5MAkGA1UdEwQCMAAwLAYJYIZIAYb4QgENBB8W
HU9wZW5TU0wgR2VuZXJhdGVkIENlcnRpZmljYXRlMB0GA1UdDgQWBBRpdxd8T9sl
bD72+0Si+5BT2V6w5DCBngYDVR0jBIGWMIGTgBT7WOdXnYrpwa/Y8FiJ5r5WnPe7
haFwpG4wbDELMAkGA1UEBhMCREUxDzANBgNVBAgTBkJheWVybjERMA8GA1UEBxMI
TXVlbmNoZW4xFzAVBgNVBAoTDldoYXRldmVyIGl0IGlzMSAwHgYDVQQDExdJTzo6
U29ja2V0OjpTU0wgVGVzdCBDQYIJAJHpTAskxL62MA0GCSqGSIb3DQEBBAUAA4GB
AK/s8uuWRd1v/fRQW9vuiOQIo1u2ihK5RZ6/54B6pnTE2E/mH/mrSgaqbI+RORfl
sNlpyIXUpPPySs8Io8nFEEJYeUfeB0jKrDg9YDdhOPx2rVKTSQaAPQHzP5rR7veR
L0LtnZQgWkDeT1WVxoToiXBZkQaMF6cKRQYkEJqDEL79
-----END CERTIFICATE-----
