Certificate:
    Data:
        Version: 3 (0x2)
        Serial Number:
            91:e9:4c:0b:24:c4:be:ba
        Signature Algorithm: md5WithRSAEncryption
        Issuer: C=DE, ST=Bayern, L=Muenchen, O=Whatever it is, CN=IO::Socket::SSL Test CA
        Validity
            Not Before: Feb 21 21:16:02 2008 GMT
            Not After : Feb 20 21:16:02 2009 GMT
        Subject: C=DE, ST=Bayern, L=Muenchen, O=Whatever it is, CN=server.local
        Subject Public Key Info:
            Public Key Algorithm: rsaEncryption
            RSA Public Key: (1024 bit)
                Modulus (1024 bit):
                    00:cf:45:e6:63:86:ae:ee:29:5f:68:30:47:a8:05:
                    62:65:4f:90:f3:66:c2:7b:71:b0:98:4e:ea:d2:24:
                    c6:17:a9:fd:c8:b7:ea:89:8d:f8:9f:d8:91:42:45:
                    8e:70:fb:69:08:85:86:5c:9b:f9:64:aa:2a:b5:14:
                    5c:6f:9f:c3:34:dc:58:5d:50:7b:56:0d:e9:43:b3:
                    fa:55:e4:41:6c:17:6c:29:5f:3f:95:b0:05:7b:24:
                    84:96:3a:85:13:a2:a2:d2:a1:83:68:f6:91:5a:b6:
                    c5:60:d2:ef:83:41:1b:15:41:fd:48:14:ad:3f:3f:
                    a3:d8:6d:2d:5c:36:82:f1:5f
                Exponent: 65537 (0x10001)
        X509v3 extensions:
            X509v3 Basic Constraints: 
                CA:FALSE
            Netscape Comment: 
                OpenSSL Generated Certificate
            X509v3 Subject Key Identifier: 
                BC:7C:BE:8E:E3:49:81:4F:F6:74:BD:D9:9F:DA:1D:9B:99:5B:9D:12
            X509v3 Authority Key Identifier: 
                keyid:FB:58:E7:57:9D:8A:E9:C1:AF:D8:F0:58:89:E6:BE:56:9C:F7:BB:85
                DirName:/C=DE/ST=Bayern/L=Muenchen/O=Whatever it is/CN=IO::Socket::SSL Test CA
                serial:91:E9:4C:0B:24:C4:BE:B6

            X509v3 Key Usage: 
                Digital Signature, Non Repudiation, Key Encipherment
            X509v3 Subject Alternative Name: 
                DNS:*.server.local, IP Address:127.0.0.1, DNS:www*.other.local, DNS:smtp.mydomain.local
    Signature Algorithm: md5WithRSAEncryption
        ca:f0:76:29:1b:96:a9:4b:7e:72:07:15:5d:f6:c1:ba:dc:8e:
        03:ef:4d:d3:4c:55:a0:32:d6:cd:f5:62:f3:ff:c9:50:e1:a3:
        91:ed:d3:d6:f7:75:ea:cc:3c:c7:d0:28:d2:96:40:48:1b:b8:
        e5:a5:83:2c:6e:ca:d9:c5:92:36:a7:97:b7:a6:08:c5:53:0d:
        eb:0c:87:e9:2a:78:a3:3a:24:7e:b9:8a:ca:4d:70:40:24:a6:
        38:29:d5:8a:5e:40:0f:c7:27:7e:aa:d8:82:9e:a5:4f:17:52:
        6d:0c:f7:8c:23:36:db:65:86:7e:48:34:68:31:be:65:0e:3c:
        36:37
-----BEGIN CERTIFICATE-----
MIIDnzCCAwigAwIBAgIJAJHpTAskxL66MA0GCSqGSIb3DQEBBAUAMGwxCzAJBgNV
BAYTAkRFMQ8wDQYDVQQIEwZCYXllcm4xETAPBgNVBAcTCE11ZW5jaGVuMRcwFQYD
VQQKEw5XaGF0ZXZlciBpdCBpczEgMB4GA1UEAxMXSU86OlNvY2tldDo6U1NMIFRl
c3QgQ0EwHhcNMDgwMjIxMjExNjAyWhcNMDkwMjIwMjExNjAyWjBhMQswCQYDVQQG
EwJERTEPMA0GA1UECBMGQmF5ZXJuMREwDwYDVQQHEwhNdWVuY2hlbjEXMBUGA1UE
ChMOV2hhdGV2ZXIgaXQgaXMxFTATBgNVBAMTDHNlcnZlci5sb2NhbDCBnzANBgkq
hkiG9w0BAQEFAAOBjQAwgYkCgYEAz0XmY4au7ilfaDBHqAViZU+Q82bCe3GwmE7q
0iTGF6n9yLfqiY34n9iRQkWOcPtpCIWGXJv5ZKoqtRRcb5/DNNxYXVB7Vg3pQ7P6
VeRBbBdsKV8/lbAFeySEljqFE6Ki0qGDaPaRWrbFYNLvg0EbFUH9SBStPz+j2G0t
XDaC8V8CAwEAAaOCAVIwggFOMAkGA1UdEwQCMAAwLAYJYIZIAYb4QgENBB8WHU9w
ZW5TU0wgR2VuZXJhdGVkIENlcnRpZmljYXRlMB0GA1UdDgQWBBS8fL6O40mBT/Z0
vdmf2h2bmVudEjCBngYDVR0jBIGWMIGTgBT7WOdXnYrpwa/Y8FiJ5r5WnPe7haFw
pG4wbDELMAkGA1UEBhMCREUxDzANBgNVBAgTBkJheWVybjERMA8GA1UEBxMITXVl
bmNoZW4xFzAVBgNVBAoTDldoYXRldmVyIGl0IGlzMSAwHgYDVQQDExdJTzo6U29j
a2V0OjpTU0wgVGVzdCBDQYIJAJHpTAskxL62MAsGA1UdDwQEAwIF4DBGBgNVHREE
PzA9gg4qLnNlcnZlci5sb2NhbIcEfwAAAYIQd3d3Ki5vdGhlci5sb2NhbIITc210
cC5teWRvbWFpbi5sb2NhbDANBgkqhkiG9w0BAQQFAAOBgQDK8HYpG5apS35yBxVd
9sG63I4D703TTFWgMtbN9WLz/8lQ4aOR7dPW93XqzDzH0CjSlkBIG7jlpYMsbsrZ
xZI2p5e3pgjFUw3rDIfpKnijOiR+uYrKTXBAJKY4KdWKXkAPxyd+qtiCnqVPF1Jt
DPeMIzbbZYZ+SDRoMb5lDjw2Nw==
-----END CERTIFICATE-----
-----BEGIN RSA PRIVATE KEY-----
MIICXgIBAAKBgQDPReZjhq7uKV9oMEeoBWJlT5DzZsJ7cbCYTurSJMYXqf3It+qJ
jfif2JFCRY5w+2kIhYZcm/lkqiq1FFxvn8M03FhdUHtWDelDs/pV5EFsF2wpXz+V
sAV7JISWOoUToqLSoYNo9pFatsVg0u+DQRsVQf1IFK0/P6PYbS1cNoLxXwIDAQAB
AoGBAMUuUDBaTkwPW834MBLtnF+Yw+Jp3ZYl38PlP4rOpQyaEO5D2IEnaGBYXEfZ
d9qPsaoDrICpeSWEpMBDMHSYXdBThuj9lLj+JXGlcwY5ExoTeo9YuFLyBcMqOpi0
694F4AlBsGlXweEKgR8GZXfsO6V2jlMsjKLGQQoU0vK2nh/hAkEA6SU3JIZLDbjP
r3/JWaxf3PET6SY0vp+8nsYyHt/FuY2mGnoEkAjzfxjHtXIsdz4nrs4wp0tNwPh7
gzgNuobZJwJBAOOXaxpqw1Q5KLUnavo/Ku59iTDrrdD24/6xyiWhIwkTzD+VWVzS
KYaNU+3ZMQnBhml5kcLn1IbO+EYFeFw7mQkCQQDjdBQ9BOs6AuBTZkbIvntzsJpt
LoHsqyg4ekGxjzx2TzQKxpmm76SmjUVgxneNCc1rI+uherzrkz/kf44dOKunAkEA
opQoDlb18dRjIAVohhtZr8Q9nJS/NecoN2kJ3pedT361CTbG/2eiAlwy+FWOkkmM
mwwc8/5n82UmNd7ye/CXAQJAcrgWummxTZ746TDhM5950kpuB22KKUF2jkBu0P8g
gGu2pQArUejChD4c7ZfCZHPGxEZUo1IFbSNmuNYrGcXycg==
-----END RSA PRIVATE KEY-----
