Certificate:
    Data:
        Version: 3 (0x2)
        Serial Number:
            cc:67:19:71:99:0b:95:a0
        Signature Algorithm: md5WithRSAEncryption
        Issuer: C=DE, ST=Bayern, L=Muenchen, O=Whatever it is, CN=IO::Socket::SSL Test CA
        Validity
            Not Before: Jan  1 00:00:01 2008 GMT
            Not After : Feb 21 09:02:40 2019 GMT
        Subject: C=DE, ST=Bayern, L=Muenchen, O=Whatever it is, CN=server.local
        Subject Public Key Info:
            Public Key Algorithm: rsaEncryption
            RSA Public Key: (1024 bit)
                Modulus (1024 bit):
                    00:cb:21:e4:f9:1a:32:b8:13:70:f7:9b:c1:a4:ec:
                    b8:d2:b3:98:f5:54:7c:ff:4d:7b:fe:6a:de:ff:60:
                    69:a5:dd:27:59:29:cc:3e:70:4d:33:e5:50:13:c8:
                    fc:14:c1:de:2b:37:8d:de:b4:27:33:06:0d:af:6e:
                    f8:9a:37:e5:1c:70:20:db:55:fe:01:2b:c6:c2:38:
                    63:1a:ec:93:9d:ce:ad:94:67:f2:68:0b:e8:27:ae:
                    e6:06:8e:5a:44:6f:78:00:9a:8f:15:81:6f:5c:71:
                    68:ff:1c:d7:a6:ea:a4:a2:41:e0:c6:4a:b6:67:d2:
                    14:36:e4:53:b9:98:8d:f4:bd
                Exponent: 65537 (0x10001)
        X509v3 extensions:
            X509v3 Basic Constraints: 
                CA:FALSE
            Netscape Comment: 
                OpenSSL Generated Certificate
            X509v3 Subject Key Identifier: 
                30:68:75:C1:78:51:67:E6:71:03:40:19:9A:02:F0:CE:E2:93:BB:D2
            X509v3 Authority Key Identifier: 
                DirName:/C=DE/ST=Bayern/L=Muenchen/O=Whatever it is/CN=IO::Socket::SSL Test CA
                serial:B2:B8:11:9C:1F:B2:35:92

            X509v3 Key Usage: 
                Digital Signature, Non Repudiation, Key Encipherment
            X509v3 Subject Alternative Name: 
                DNS:*.server.local, IP Address:127.0.0.1, DNS:www*.other.local, DNS:smtp.mydomain.local, DNS:xn--lwe-sna.idntest.local
    Signature Algorithm: md5WithRSAEncryption
        85:aa:38:ba:74:b1:2b:13:d7:cd:b9:69:ef:56:5d:c4:0f:35:
        ee:8d:07:38:85:c8:4d:9c:2a:af:67:0d:3b:82:db:16:16:89:
        21:bb:56:68:ba:d7:5b:3c:c0:98:cd:a6:87:8a:35:61:c0:45:
        78:dd:c8:8d:b5:6e:40:45:e1:18:0e:6b:07:d6:ed:09:f5:84:
        68:d2:50:87:90:b8:99:8e:ae:04:d3:3d:3a:c3:13:33:8b:30:
        c1:68:5a:a2:76:a3:30:d1:5a:b8:97:45:01:70:d8:de:81:ce:
        fc:98:89:6d:e0:9a:49:6f:00:42:91:52:b7:22:79:f2:9f:6f:
        63:56
-----BEGIN CERTIFICATE-----
MIIDojCCAwugAwIBAgIJAMxnGXGZC5WgMA0GCSqGSIb3DQEBBAUAMGwxCzAJBgNV
BAYTAkRFMQ8wDQYDVQQIEwZCYXllcm4xETAPBgNVBAcTCE11ZW5jaGVuMRcwFQYD
VQQKEw5XaGF0ZXZlciBpdCBpczEgMB4GA1UEAxMXSU86OlNvY2tldDo6U1NMIFRl
c3QgQ0EwHhcNMDgwMTAxMDAwMDAxWhcNMTkwMjIxMDkwMjQwWjBhMQswCQYDVQQG
EwJERTEPMA0GA1UECBMGQmF5ZXJuMREwDwYDVQQHEwhNdWVuY2hlbjEXMBUGA1UE
ChMOV2hhdGV2ZXIgaXQgaXMxFTATBgNVBAMTDHNlcnZlci5sb2NhbDCBnzANBgkq
hkiG9w0BAQEFAAOBjQAwgYkCgYEAyyHk+RoyuBNw95vBpOy40rOY9VR8/017/mre
/2Bppd0nWSnMPnBNM+VQE8j8FMHeKzeN3rQnMwYNr274mjflHHAg21X+ASvGwjhj
GuyTnc6tlGfyaAvoJ67mBo5aRG94AJqPFYFvXHFo/xzXpuqkokHgxkq2Z9IUNuRT
uZiN9L0CAwEAAaOCAVUwggFRMAkGA1UdEwQCMAAwLAYJYIZIAYb4QgENBB8WHU9w
ZW5TU0wgR2VuZXJhdGVkIENlcnRpZmljYXRlMB0GA1UdDgQWBBQwaHXBeFFn5nED
QBmaAvDO4pO70jCBhgYDVR0jBH8wfaFwpG4wbDELMAkGA1UEBhMCREUxDzANBgNV
BAgTBkJheWVybjERMA8GA1UEBxMITXVlbmNoZW4xFzAVBgNVBAoTDldoYXRldmVy
IGl0IGlzMSAwHgYDVQQDExdJTzo6U29ja2V0OjpTU0wgVGVzdCBDQYIJALK4EZwf
sjWSMAsGA1UdDwQEAwIF4DBhBgNVHREEWjBYgg4qLnNlcnZlci5sb2NhbIcEfwAA
AYIQd3d3Ki5vdGhlci5sb2NhbIITc210cC5teWRvbWFpbi5sb2NhbIIZeG4tLWx3
ZS1zbmEuaWRudGVzdC5sb2NhbDANBgkqhkiG9w0BAQQFAAOBgQCFqji6dLErE9fN
uWnvVl3EDzXujQc4hchNnCqvZw07gtsWFokhu1ZoutdbPMCYzaaHijVhwEV43ciN
tW5AReEYDmsH1u0J9YRo0lCHkLiZjq4E0z06wxMzizDBaFqidqMw0Vq4l0UBcNje
gc78mIlt4JpJbwBCkVK3Innyn29jVg==
-----END CERTIFICATE-----
-----BEGIN RSA PRIVATE KEY-----
MIICXQIBAAKBgQDLIeT5GjK4E3D3m8Gk7LjSs5j1VHz/TXv+at7/YGml3SdZKcw+
cE0z5VATyPwUwd4rN43etCczBg2vbviaN+UccCDbVf4BK8bCOGMa7JOdzq2UZ/Jo
C+gnruYGjlpEb3gAmo8VgW9ccWj/HNem6qSiQeDGSrZn0hQ25FO5mI30vQIDAQAB
AoGAeGAkpa3twoHa3xERRx/1Qv+lNDUWQeD0CsfgUGwdD2qoJ8GKRLIePhO1SZRA
NjjQ5MFuNDyEQktjDsRvVEytWweArYeZ2eIordoQi9wy3yGkRY1B767Yossv1/QT
ElCXFvsH7B0m/qKu21XLxK/D8KobtEqvVonVSya+zGBCPO0CQQDqsg8FUnxNk+HV
R58s2PJLyN7i0kdhtJTKMU63NIRsE89dnT9GWxZTB7xjT7VfL4FuRlif4MZv4bM0
lhcGyh1vAkEA3ZJcH5RW7kCWSsSyvPnDWZSyxI9yo9uyPpQzWUeaKoy6LBjYZHDr
xN5evdWuqz60aCFo3ARqnndFo5YJxkbSkwJBAKno2sMJooAvbbGQtoYrUc7Xz7T6
cz8jEw0GgWxVEwGDnf6yFtsCmrjlwtdLH42XwOZq+0JT4pWhGrIZbvY1YPUCQHRl
eresOa6Xh1xn0G2t142rq+3OXa7urshpGkCAeOB5ZSPdOXAqUfDt0F9xbXzQR/2b
73YFa+0rQw4Yt7HNarkCQQDFLSjquUHjmuRGAXGdCpGPzl1r+xEUbcK5xlnvmcAf
Q5w/tJ4QoQQiJWztiKx5Jk4xqrt6FA0vgknQjRtsKQEG
-----END RSA PRIVATE KEY-----
