Certificate:
    Data:
        Version: 3 (0x2)
        Serial Number:
            d6:d7:e1:b4:b3:30:91:ed
        Signature Algorithm: sha1WithRSAEncryption
        Issuer: C=DE, ST=Bayern, L=Muenchen, O=Whatever it is, CN=IO::Socket::SSL Demo CA
        Validity
            Not Before: Jan  1 00:00:01 2008 GMT
            Not After : Mar 30 06:50:28 2019 GMT
        Subject: C=DE, ST=Bayern, L=Muenchen, O=Whatever it is, CN=server.local
        Subject Public Key Info:
            Public Key Algorithm: rsaEncryption
            RSA Public Key: (1024 bit)
                Modulus (1024 bit):
                    00:de:38:f0:a3:7d:c2:61:db:d3:46:c9:ee:94:0f:
                    93:a0:20:27:42:4b:c9:6e:e6:3f:43:25:55:a5:e4:
                    b9:6d:c6:93:dc:76:2c:33:cb:82:f5:11:da:8b:e8:
                    3d:c1:19:a6:14:59:56:5e:27:76:6e:e7:89:de:58:
                    f7:6a:98:d5:48:3f:2c:67:4d:43:e4:db:7c:51:5b:
                    08:ea:c8:50:3a:3b:08:7a:f4:6b:60:dd:44:74:85:
                    7a:ba:36:15:57:9f:ac:27:07:86:c8:16:aa:c1:24:
                    19:06:08:9c:1c:88:5a:77:50:1e:2f:02:ce:25:61:
                    39:15:17:77:04:5b:40:fe:f9
                Exponent: 65537 (0x10001)
        X509v3 extensions:
            X509v3 Basic Constraints: 
                CA:FALSE
            Netscape Comment: 
                OpenSSL Generated Certificate
            X509v3 Subject Key Identifier: 
                7A:3C:37:1A:45:B2:1A:23:85:76:F6:60:98:3B:5A:E2:EA:B4:57:29
            X509v3 Authority Key Identifier: 
                keyid:DE:65:01:16:19:2E:51:E0:9A:51:1A:37:50:94:7D:39:29:2A:42:2C
                DirName:/C=DE/ST=Bayern/L=Muenchen/O=Whatever it is/CN=IO::Socket::SSL Demo CA
                serial:E7:AD:8B:07:55:8A:17:27

            X509v3 Key Usage: 
                Digital Signature, Non Repudiation, Key Encipherment
    Signature Algorithm: sha1WithRSAEncryption
        3e:a4:1e:53:05:7f:96:a9:3d:e0:c0:23:0d:cf:40:3b:ce:2c:
        8b:36:59:c7:07:20:67:fe:ed:f9:fc:85:74:ce:3e:33:f7:a9:
        56:9b:4a:8b:2a:c1:16:6f:25:82:a1:19:f6:c1:dd:eb:d4:40:
        b3:0b:71:d8:0e:ae:fd:b0:46:56:65:5b:87:c7:ac:88:33:cf:
        d1:ec:3e:e8:50:2d:6c:67:1f:bf:e7:15:f9:bb:a7:61:17:eb:
        27:fa:c6:d0:cf:f2:ca:b4:5d:18:57:dd:14:ed:ea:64:f8:0e:
        1c:63:0f:0a:db:18:0a:30:1f:76:77:a0:56:a5:0e:9e:fa:f8:
        79:2e
-----BEGIN CERTIFICATE-----
MIIDVzCCAsCgAwIBAgIJANbX4bSzMJHtMA0GCSqGSIb3DQEBBQUAMGwxCzAJBgNV
BAYTAkRFMQ8wDQYDVQQIEwZCYXllcm4xETAPBgNVBAcTCE11ZW5jaGVuMRcwFQYD
VQQKEw5XaGF0ZXZlciBpdCBpczEgMB4GA1UEAxMXSU86OlNvY2tldDo6U1NMIERl
bW8gQ0EwHhcNMDgwMTAxMDAwMDAxWhcNMTkwMzMwMDY1MDI4WjBhMQswCQYDVQQG
EwJERTEPMA0GA1UECBMGQmF5ZXJuMREwDwYDVQQHEwhNdWVuY2hlbjEXMBUGA1UE
ChMOV2hhdGV2ZXIgaXQgaXMxFTATBgNVBAMTDHNlcnZlci5sb2NhbDCBnzANBgkq
hkiG9w0BAQEFAAOBjQAwgYkCgYEA3jjwo33CYdvTRsnulA+ToCAnQkvJbuY/QyVV
peS5bcaT3HYsM8uC9RHai+g9wRmmFFlWXid2bueJ3lj3apjVSD8sZ01D5Nt8UVsI
6shQOjsIevRrYN1EdIV6ujYVV5+sJweGyBaqwSQZBgicHIhad1AeLwLOJWE5FRd3
BFtA/vkCAwEAAaOCAQowggEGMAkGA1UdEwQCMAAwLAYJYIZIAYb4QgENBB8WHU9w
ZW5TU0wgR2VuZXJhdGVkIENlcnRpZmljYXRlMB0GA1UdDgQWBBR6PDcaRbIaI4V2
9mCYO1ri6rRXKTCBngYDVR0jBIGWMIGTgBTeZQEWGS5R4JpRGjdQlH05KSpCLKFw
pG4wbDELMAkGA1UEBhMCREUxDzANBgNVBAgTBkJheWVybjERMA8GA1UEBxMITXVl
bmNoZW4xFzAVBgNVBAoTDldoYXRldmVyIGl0IGlzMSAwHgYDVQQDExdJTzo6U29j
a2V0OjpTU0wgRGVtbyBDQYIJAOetiwdVihcnMAsGA1UdDwQEAwIF4DANBgkqhkiG
9w0BAQUFAAOBgQA+pB5TBX+WqT3gwCMNz0A7ziyLNlnHByBn/u35/IV0zj4z96lW
m0qLKsEWbyWCoRn2wd3r1ECzC3HYDq79sEZWZVuHx6yIM8/R7D7oUC1sZx+/5xX5
u6dhF+sn+sbQz/LKtF0YV90U7epk+A4cYw8K2xgKMB92d6BWpQ6e+vh5Lg==
-----END CERTIFICATE-----
