Certificate:
    Data:
        Version: 3 (0x2)
        Serial Number:
            cc:67:19:71:99:0b:95:9e
        Signature Algorithm: md5WithRSAEncryption
        Issuer: C=DE, ST=Bayern, L=Muenchen, O=Whatever it is, CN=IO::Socket::SSL Test CA
        Validity
            Not Before: Jan  1 00:00:01 2008 GMT
            Not After : Feb 21 08:58:59 2019 GMT
        Subject: C=DE, ST=Bayern, L=Muenchen, O=Whatever it is, CN=server.local
        Subject Public Key Info:
            Public Key Algorithm: rsaEncryption
            RSA Public Key: (1024 bit)
                Modulus (1024 bit):
                    00:a4:28:c9:39:f8:79:11:b0:3f:1e:28:1e:5d:26:
                    73:30:05:52:ff:b7:a4:97:32:7a:6a:b7:2b:96:08:
                    85:e4:60:d5:b2:54:a6:b2:ae:b0:22:23:89:92:d4:
                    04:b4:a7:79:83:8f:0b:e7:a4:a6:a1:78:57:88:ae:
                    a3:42:8e:28:8d:fa:c1:d8:12:bc:59:39:4b:15:5b:
                    f6:f2:e9:34:56:ca:a8:8c:c5:f6:cf:fd:e3:0f:7d:
                    7e:14:16:86:ac:b2:e9:13:04:85:26:43:60:2d:d2:
                    a4:d6:b6:6b:fe:14:05:6c:ef:b9:7f:80:13:ab:0f:
                    73:b5:be:9e:68:5a:43:64:41
                Exponent: 65537 (0x10001)
        X509v3 extensions:
            X509v3 Basic Constraints: 
                CA:FALSE
            Netscape Comment: 
                OpenSSL Generated Certificate
            X509v3 Subject Key Identifier: 
                62:45:C2:4B:A4:8A:0D:6E:40:21:FA:60:21:C2:EF:D7:E7:D5:1D:98
            X509v3 Authority Key Identifier: 
                DirName:/C=DE/ST=Bayern/L=Muenchen/O=Whatever it is/CN=IO::Socket::SSL Test CA
                serial:B2:B8:11:9C:1F:B2:35:92

            X509v3 Key Usage: 
                Digital Signature, Non Repudiation, Key Encipherment
    Signature Algorithm: md5WithRSAEncryption
        63:c5:72:55:26:ca:d7:49:0d:21:35:63:e8:db:4c:7f:dd:5f:
        49:be:5e:8d:7c:b0:32:21:e7:f8:28:7f:d8:4f:92:0a:fb:00:
        83:c4:54:18:ce:5e:f9:3d:f1:0f:37:a3:48:0b:a8:64:e2:90:
        3b:24:71:37:3f:e9:1e:ac:c3:2b:c1:38:32:e8:7f:78:60:87:
        80:ed:a9:70:88:ba:7e:34:fb:ea:e0:fe:0e:b6:86:01:26:bf:
        97:c7:0a:48:4a:87:ae:75:fd:cc:da:0d:f6:a7:fb:c8:f0:9d:
        36:c8:e7:c8:a1:72:8b:a5:87:e4:38:7b:58:c4:d1:b3:ff:d0:
        b2:c4
-----BEGIN CERTIFICATE-----
MIIDPTCCAqagAwIBAgIJAMxnGXGZC5WeMA0GCSqGSIb3DQEBBAUAMGwxCzAJBgNV
BAYTAkRFMQ8wDQYDVQQIEwZCYXllcm4xETAPBgNVBAcTCE11ZW5jaGVuMRcwFQYD
VQQKEw5XaGF0ZXZlciBpdCBpczEgMB4GA1UEAxMXSU86OlNvY2tldDo6U1NMIFRl
c3QgQ0EwHhcNMDgwMTAxMDAwMDAxWhcNMTkwMjIxMDg1ODU5WjBhMQswCQYDVQQG
EwJERTEPMA0GA1UECBMGQmF5ZXJuMREwDwYDVQQHEwhNdWVuY2hlbjEXMBUGA1UE
ChMOV2hhdGV2ZXIgaXQgaXMxFTATBgNVBAMTDHNlcnZlci5sb2NhbDCBnzANBgkq
hkiG9w0BAQEFAAOBjQAwgYkCgYEApCjJOfh5EbA/HigeXSZzMAVS/7eklzJ6arcr
lgiF5GDVslSmsq6wIiOJktQEtKd5g48L56SmoXhXiK6jQo4ojfrB2BK8WTlLFVv2
8uk0VsqojMX2z/3jD31+FBaGrLLpEwSFJkNgLdKk1rZr/hQFbO+5f4ATqw9ztb6e
aFpDZEECAwEAAaOB8TCB7jAJBgNVHRMEAjAAMCwGCWCGSAGG+EIBDQQfFh1PcGVu
U1NMIEdlbmVyYXRlZCBDZXJ0aWZpY2F0ZTAdBgNVHQ4EFgQUYkXCS6SKDW5AIfpg
IcLv1+fVHZgwgYYGA1UdIwR/MH2hcKRuMGwxCzAJBgNVBAYTAkRFMQ8wDQYDVQQI
EwZCYXllcm4xETAPBgNVBAcTCE11ZW5jaGVuMRcwFQYDVQQKEw5XaGF0ZXZlciBp
dCBpczEgMB4GA1UEAxMXSU86OlNvY2tldDo6U1NMIFRlc3QgQ0GCCQCyuBGcH7I1
kjALBgNVHQ8EBAMCBeAwDQYJKoZIhvcNAQEEBQADgYEAY8VyVSbK10kNITVj6NtM
f91fSb5ejXywMiHn+Ch/2E+SCvsAg8RUGM5e+T3xDzejSAuoZOKQOyRxNz/pHqzD
K8E4Muh/eGCHgO2pcIi6fjT76uD+DraGASa/l8cKSEqHrnX9zNoN9qf7yPCdNsjn
yKFyi6WH5Dh7WMTRs//QssQ=
-----END CERTIFICATE-----
