Certificate:
    Data:
        Version: 3 (0x2)
        Serial Number:
            cc:67:19:71:99:0b:95:9d
        Signature Algorithm: md5WithRSAEncryption
        Issuer: C=DE, ST=Bayern, O=Whatever it is, CN=IO::Socket::SSL Test CA
        Validity
            Not Before: Jan  1 00:00:01 2008 GMT
            Not After : Feb 21 08:53:54 2019 GMT
        Subject: C=DE, ST=Bayern, O=Whatever it is, CN=IO::Socket::SSL Test CA
        Subject Public Key Info:
            Public Key Algorithm: rsaEncryption
            RSA Public Key: (1024 bit)
                Modulus (1024 bit):
                    00:ac:b6:20:dc:67:d3:51:ef:9a:3d:d5:40:e5:4d:
                    bd:25:55:d0:50:79:31:f4:51:ce:65:66:7f:f2:3f:
                    61:48:71:95:c1:c4:a9:d9:8e:02:85:9b:74:2b:6e:
                    9c:ec:d6:14:83:c9:94:4c:92:4d:f7:f8:be:7e:65:
                    47:f0:41:02:ca:6c:eb:fb:af:16:b1:ca:58:fa:36:
                    bf:60:40:9b:5d:ef:5a:d1:13:f3:fa:23:b0:c4:9c:
                    75:e1:b7:ab:6a:23:04:46:48:66:10:08:59:74:20:
                    47:86:04:c2:75:e5:15:5b:77:8c:5f:c3:0b:6a:22:
                    2b:d3:1b:00:67:8d:29:79:e9
                Exponent: 65537 (0x10001)
        X509v3 extensions:
            X509v3 Subject Key Identifier: 
                F8:EF:69:5A:7A:8D:70:55:5D:65:C8:49:6E:95:83:0E:3F:0D:B5:F8
            X509v3 Authority Key Identifier: 
                keyid:F8:EF:69:5A:7A:8D:70:55:5D:65:C8:49:6E:95:83:0E:3F:0D:B5:F8
                DirName:/C=DE/ST=Bayern/O=Whatever it is/CN=IO::Socket::SSL Test CA
                serial:CC:67:19:71:99:0B:95:9D

            X509v3 Basic Constraints: 
                CA:TRUE
            X509v3 Key Usage: 
                Digital Signature, Non Repudiation, Key Encipherment
    Signature Algorithm: md5WithRSAEncryption
        16:b6:36:0b:2b:97:6c:89:53:85:3d:13:7c:6a:76:40:6b:61:
        20:95:59:fb:82:94:81:67:34:39:85:e1:8b:24:b7:1c:f4:c9:
        32:97:4e:90:4e:93:4e:f1:35:ea:af:1c:91:34:db:f5:07:0d:
        bc:d5:01:8f:55:89:3c:41:e1:38:14:01:b2:08:ae:9f:a7:a3:
        28:2d:ab:09:37:09:23:97:60:69:4f:de:d1:30:5b:0e:2f:52:
        1b:24:0b:e0:cb:c1:19:1f:a2:d8:60:db:1d:a9:a1:7b:54:d6:
        4c:ce:a6:aa:41:81:66:b8:2b:b6:1c:d5:6f:d2:91:fb:e1:d8:
        73:78
-----BEGIN CERTIFICATE-----
MIIC/DCCAmWgAwIBAgIJAMxnGXGZC5WdMA0GCSqGSIb3DQEBBAUAMFkxCzAJBgNV
BAYTAkRFMQ8wDQYDVQQIEwZCYXllcm4xFzAVBgNVBAoTDldoYXRldmVyIGl0IGlz
MSAwHgYDVQQDExdJTzo6U29ja2V0OjpTU0wgVGVzdCBDQTAeFw0wODAxMDEwMDAw
MDFaFw0xOTAyMjEwODUzNTRaMFkxCzAJBgNVBAYTAkRFMQ8wDQYDVQQIEwZCYXll
cm4xFzAVBgNVBAoTDldoYXRldmVyIGl0IGlzMSAwHgYDVQQDExdJTzo6U29ja2V0
OjpTU0wgVGVzdCBDQTCBnzANBgkqhkiG9w0BAQEFAAOBjQAwgYkCgYEArLYg3GfT
Ue+aPdVA5U29JVXQUHkx9FHOZWZ/8j9hSHGVwcSp2Y4ChZt0K26c7NYUg8mUTJJN
9/i+fmVH8EECymzr+68WscpY+ja/YECbXe9a0RPz+iOwxJx14beraiMERkhmEAhZ
dCBHhgTCdeUVW3eMX8MLaiIr0xsAZ40peekCAwEAAaOByzCByDAdBgNVHQ4EFgQU
+O9pWnqNcFVdZchJbpWDDj8NtfgwgYsGA1UdIwSBgzCBgIAU+O9pWnqNcFVdZchJ
bpWDDj8NtfihXaRbMFkxCzAJBgNVBAYTAkRFMQ8wDQYDVQQIEwZCYXllcm4xFzAV
BgNVBAoTDldoYXRldmVyIGl0IGlzMSAwHgYDVQQDExdJTzo6U29ja2V0OjpTU0wg
VGVzdCBDQYIJAMxnGXGZC5WdMAwGA1UdEwQFMAMBAf8wCwYDVR0PBAQDAgXgMA0G
CSqGSIb3DQEBBAUAA4GBABa2Ngsrl2yJU4U9E3xqdkBrYSCVWfuClIFnNDmF4Ysk
txz0yTKXTpBOk07xNeqvHJE02/UHDbzVAY9ViTxB4TgUAbIIrp+noygtqwk3CSOX
YGlP3tEwWw4vUhskC+DLwRkfothg2x2poXtU1kzOpqpBgWa4K7Yc1W/Skfvh2HN4
-----END CERTIFICATE-----
