Certificate:
    Data:
        Version: 3 (0x2)
        Serial Number:
            cc:67:19:71:99:0b:95:9f
        Signature Algorithm: md5WithRSAEncryption
        Issuer: C=DE, ST=Bayern, L=Muenchen, O=Whatever it is, CN=IO::Socket::SSL Test CA
        Validity
            Not Before: Jan  1 00:00:01 2008 GMT
            Not After : Feb 21 09:01:20 2019 GMT
        Subject: C=DE, ST=Bayern, L=Muenchen, O=Whatever it is, CN=client.local
        Subject Public Key Info:
            Public Key Algorithm: rsaEncryption
            RSA Public Key: (1024 bit)
                Modulus (1024 bit):
                    00:a0:d6:95:63:e9:ea:ad:d1:08:04:b5:db:3f:33:
                    01:72:7d:d5:e9:fe:99:3b:0a:8e:8a:0d:f3:99:1a:
                    77:64:de:52:ef:3a:5a:5e:59:28:cb:b8:01:e2:45:
                    68:84:91:f3:02:58:28:47:f3:1e:d9:06:83:cf:e8:
                    f9:52:d3:f4:ba:70:53:44:38:96:31:75:9b:8a:8b:
                    dd:1e:e5:ad:5c:ff:8c:c9:a3:57:ea:c5:7a:f6:c6:
                    ff:be:d5:53:d7:28:3f:2d:cd:eb:d2:2f:d0:73:16:
                    7f:de:03:4b:37:3d:bc:58:36:4e:10:16:b7:9d:bc:
                    56:fa:3f:f3:1d:92:b3:47:eb
                Exponent: 65537 (0x10001)
        X509v3 extensions:
            X509v3 Basic Constraints: 
                CA:FALSE
            Netscape Comment: 
                OpenSSL Generated Certificate
            X509v3 Subject Key Identifier: 
                25:CB:7F:57:18:FC:CE:7A:BD:5B:AE:EC:34:8D:5E:BC:2E:77:B2:30
            X509v3 Authority Key Identifier: 
                DirName:/C=DE/ST=Bayern/L=Muenchen/O=Whatever it is/CN=IO::Socket::SSL Test CA
                serial:B2:B8:11:9C:1F:B2:35:92

            X509v3 Key Usage: 
                Digital Signature, Non Repudiation, Key Encipherment
    Signature Algorithm: md5WithRSAEncryption
        12:73:3c:00:cd:b2:31:0a:3c:e7:81:4e:3c:11:80:4c:b4:a9:
        af:aa:12:54:cb:6a:37:85:98:4c:ae:8e:85:ae:6d:95:07:c2:
        a7:b8:6e:92:a7:eb:38:aa:e0:77:cb:4a:79:73:44:d3:6b:c1:
        e4:10:85:4b:00:fc:4b:da:71:f2:ce:1a:3a:c6:b4:2c:53:9f:
        6a:af:e6:1e:96:cf:19:89:c7:61:c0:e0:27:72:68:f2:b1:35:
        c8:cf:13:a6:0e:fc:89:04:14:54:93:f2:50:53:ba:be:30:ce:
        02:59:f9:03:86:ce:59:42:0c:46:de:9f:2f:51:e3:63:35:eb:
        59:51
-----BEGIN CERTIFICATE-----
MIIDPTCCAqagAwIBAgIJAMxnGXGZC5WfMA0GCSqGSIb3DQEBBAUAMGwxCzAJBgNV
BAYTAkRFMQ8wDQYDVQQIEwZCYXllcm4xETAPBgNVBAcTCE11ZW5jaGVuMRcwFQYD
VQQKEw5XaGF0ZXZlciBpdCBpczEgMB4GA1UEAxMXSU86OlNvY2tldDo6U1NMIFRl
c3QgQ0EwHhcNMDgwMTAxMDAwMDAxWhcNMTkwMjIxMDkwMTIwWjBhMQswCQYDVQQG
EwJERTEPMA0GA1UECBMGQmF5ZXJuMREwDwYDVQQHEwhNdWVuY2hlbjEXMBUGA1UE
ChMOV2hhdGV2ZXIgaXQgaXMxFTATBgNVBAMTDGNsaWVudC5sb2NhbDCBnzANBgkq
hkiG9w0BAQEFAAOBjQAwgYkCgYEAoNaVY+nqrdEIBLXbPzMBcn3V6f6ZOwqOig3z
mRp3ZN5S7zpaXlkoy7gB4kVohJHzAlgoR/Me2QaDz+j5UtP0unBTRDiWMXWbiovd
HuWtXP+MyaNX6sV69sb/vtVT1yg/Lc3r0i/QcxZ/3gNLNz28WDZOEBa3nbxW+j/z
HZKzR+sCAwEAAaOB8TCB7jAJBgNVHRMEAjAAMCwGCWCGSAGG+EIBDQQfFh1PcGVu
U1NMIEdlbmVyYXRlZCBDZXJ0aWZpY2F0ZTAdBgNVHQ4EFgQUJct/Vxj8znq9W67s
NI1evC53sjAwgYYGA1UdIwR/MH2hcKRuMGwxCzAJBgNVBAYTAkRFMQ8wDQYDVQQI
EwZCYXllcm4xETAPBgNVBAcTCE11ZW5jaGVuMRcwFQYDVQQKEw5XaGF0ZXZlciBp
dCBpczEgMB4GA1UEAxMXSU86OlNvY2tldDo6U1NMIFRlc3QgQ0GCCQCyuBGcH7I1
kjALBgNVHQ8EBAMCBeAwDQYJKoZIhvcNAQEEBQADgYEAEnM8AM2yMQo854FOPBGA
TLSpr6oSVMtqN4WYTK6Oha5tlQfCp7hukqfrOKrgd8tKeXNE02vB5BCFSwD8S9px
8s4aOsa0LFOfaq/mHpbPGYnHYcDgJ3Jo8rE1yM8Tpg78iQQUVJPyUFO6vjDOAln5
A4bOWUIMRt6fL1HjYzXrWVE=
-----END CERTIFICATE-----
