Certificate:
    Data:
        Version: 3 (0x2)
        Serial Number:
            d6:d7:e1:b4:b3:30:91:ec
        Signature Algorithm: sha1WithRSAEncryption
        Issuer: C=DE, ST=Bayern, O=Whatever it is, CN=IO::Socket::SSL Demo CA
        Validity
            Not Before: Jan  1 00:00:01 2008 GMT
            Not After : Mar 29 16:00:38 2019 GMT
        Subject: C=DE, ST=Bayern, L=Muenchen, O=Whatever it is, CN=server.local
        Subject Public Key Info:
            Public Key Algorithm: rsaEncryption
            RSA Public Key: (1024 bit)
                Modulus (1024 bit):
                    00:de:38:f0:a3:7d:c2:61:db:d3:46:c9:ee:94:0f:
                    93:a0:20:27:42:4b:c9:6e:e6:3f:43:25:55:a5:e4:
                    b9:6d:c6:93:dc:76:2c:33:cb:82:f5:11:da:8b:e8:
                    3d:c1:19:a6:14:59:56:5e:27:76:6e:e7:89:de:58:
                    f7:6a:98:d5:48:3f:2c:67:4d:43:e4:db:7c:51:5b:
                    08:ea:c8:50:3a:3b:08:7a:f4:6b:60:dd:44:74:85:
                    7a:ba:36:15:57:9f:ac:27:07:86:c8:16:aa:c1:24:
                    19:06:08:9c:1c:88:5a:77:50:1e:2f:02:ce:25:61:
                    39:15:17:77:04:5b:40:fe:f9
                Exponent: 65537 (0x10001)
        X509v3 extensions:
            X509v3 Basic Constraints: 
                CA:FALSE
            Netscape Comment: 
                OpenSSL Generated Certificate
            X509v3 Subject Key Identifier: 
                7A:3C:37:1A:45:B2:1A:23:85:76:F6:60:98:3B:5A:E2:EA:B4:57:29
            X509v3 Authority Key Identifier: 
                keyid:DE:65:01:16:19:2E:51:E0:9A:51:1A:37:50:94:7D:39:29:2A:42:2C
                DirName:/C=DE/ST=Bayern/O=Whatever it is/CN=IO::Socket::SSL Demo CA
                serial:D6:D7:E1:B4:B3:30:91:EB

            X509v3 Key Usage: 
                Digital Signature, Non Repudiation, Key Encipherment
    Signature Algorithm: sha1WithRSAEncryption
        97:e5:41:26:0e:d8:f9:52:30:79:23:56:37:24:a9:41:38:5d:
        5c:78:d6:80:0c:21:bd:fc:13:9f:a9:e9:ce:1d:fb:6b:d3:3a:
        0a:d0:aa:15:46:ab:6d:f7:3f:a1:af:54:fb:6b:01:a8:7e:37:
        2b:04:b8:fc:d0:32:f5:7b:c7:15:24:d6:aa:c6:c5:39:7e:da:
        0f:20:de:ac:0b:11:cf:ec:08:08:73:bd:ca:20:b5:80:bb:f5:
        ed:85:b6:57:1a:4c:e4:06:9a:98:5e:25:20:c7:d5:7e:fa:d9:
        21:a5:33:0f:4f:05:84:2c:a1:ee:20:6b:04:2c:5e:0f:3d:a5:
        b1:c7
-----BEGIN CERTIFICATE-----
MIIDLzCCApigAwIBAgIJANbX4bSzMJHsMA0GCSqGSIb3DQEBBQUAMFkxCzAJBgNV
BAYTAkRFMQ8wDQYDVQQIEwZCYXllcm4xFzAVBgNVBAoTDldoYXRldmVyIGl0IGlz
MSAwHgYDVQQDExdJTzo6U29ja2V0OjpTU0wgRGVtbyBDQTAeFw0wODAxMDEwMDAw
MDFaFw0xOTAzMjkxNjAwMzhaMGExCzAJBgNVBAYTAkRFMQ8wDQYDVQQIEwZCYXll
cm4xETAPBgNVBAcTCE11ZW5jaGVuMRcwFQYDVQQKEw5XaGF0ZXZlciBpdCBpczEV
MBMGA1UEAxMMc2VydmVyLmxvY2FsMIGfMA0GCSqGSIb3DQEBAQUAA4GNADCBiQKB
gQDeOPCjfcJh29NGye6UD5OgICdCS8lu5j9DJVWl5LltxpPcdiwzy4L1EdqL6D3B
GaYUWVZeJ3Zu54neWPdqmNVIPyxnTUPk23xRWwjqyFA6Owh69Gtg3UR0hXq6NhVX
n6wnB4bIFqrBJBkGCJwciFp3UB4vAs4lYTkVF3cEW0D++QIDAQABo4H2MIHzMAkG
A1UdEwQCMAAwLAYJYIZIAYb4QgENBB8WHU9wZW5TU0wgR2VuZXJhdGVkIENlcnRp
ZmljYXRlMB0GA1UdDgQWBBR6PDcaRbIaI4V29mCYO1ri6rRXKTCBiwYDVR0jBIGD
MIGAgBTeZQEWGS5R4JpRGjdQlH05KSpCLKFdpFswWTELMAkGA1UEBhMCREUxDzAN
BgNVBAgTBkJheWVybjEXMBUGA1UEChMOV2hhdGV2ZXIgaXQgaXMxIDAeBgNVBAMT
F0lPOjpTb2NrZXQ6OlNTTCBEZW1vIENBggkA1tfhtLMwkeswCwYDVR0PBAQDAgXg
MA0GCSqGSIb3DQEBBQUAA4GBAJflQSYO2PlSMHkjVjckqUE4XVx41oAMIb38E5+p
6c4d+2vTOgrQqhVGq233P6GvVPtrAah+NysEuPzQMvV7xxUk1qrGxTl+2g8g3qwL
Ec/sCAhzvcogtYC79e2FtlcaTOQGmpheJSDH1X762SGlMw9PBYQsoe4gawQsXg89
pbHH
-----END CERTIFICATE-----
