Certificate:
    Data:
        Version: 3 (0x2)
        Serial Number:
            d6:d7:e1:b4:b3:30:91:eb
        Signature Algorithm: sha1WithRSAEncryption
        Issuer: C=DE, ST=Bayern, O=Whatever it is, CN=IO::Socket::SSL Demo CA
        Validity
            Not Before: Jan  1 00:00:01 2008 GMT
            Not After : Mar 29 15:58:43 2019 GMT
        Subject: C=DE, ST=Bayern, O=Whatever it is, CN=IO::Socket::SSL Demo CA
        Subject Public Key Info:
            Public Key Algorithm: rsaEncryption
            RSA Public Key: (1024 bit)
                Modulus (1024 bit):
                    00:d9:44:e7:da:b7:29:5c:c5:c6:eb:c7:47:53:5e:
                    f8:28:ce:5a:85:c2:9b:3b:82:18:32:c7:e4:2f:83:
                    0a:ef:ef:6c:3c:74:f2:29:30:39:35:cd:37:90:3c:
                    d4:b2:f2:74:c2:60:8b:04:af:5b:46:0b:e4:ff:75:
                    8b:77:ad:a6:26:da:45:e4:db:44:33:62:2b:97:38:
                    22:14:47:e2:58:f7:1b:d4:76:77:9e:f5:9d:6f:24:
                    3e:6e:ec:37:e4:86:70:2c:08:98:64:c5:56:7b:c6:
                    84:85:e1:97:a2:f3:5d:af:8b:e6:7e:78:f4:7e:fc:
                    5e:ee:4c:9c:9e:05:b7:f9:41
                Exponent: 65537 (0x10001)
        X509v3 extensions:
            X509v3 Subject Key Identifier: 
                DE:65:01:16:19:2E:51:E0:9A:51:1A:37:50:94:7D:39:29:2A:42:2C
            X509v3 Authority Key Identifier: 
                keyid:DE:65:01:16:19:2E:51:E0:9A:51:1A:37:50:94:7D:39:29:2A:42:2C
                DirName:/C=DE/ST=Bayern/O=Whatever it is/CN=IO::Socket::SSL Demo CA
                serial:D6:D7:E1:B4:B3:30:91:EB

            X509v3 Basic Constraints: 
                CA:TRUE
            X509v3 Key Usage: 
                Digital Signature, Non Repudiation, Key Encipherment
    Signature Algorithm: sha1WithRSAEncryption
        2e:2a:9b:6e:49:0c:18:ba:ce:2d:b5:ff:99:d6:d0:8d:c9:00:
        ba:11:64:69:0c:a4:9e:9c:e9:2b:83:87:3c:2a:57:9e:8a:08:
        35:61:47:35:3d:cb:4c:7e:ea:84:0c:68:e9:45:b4:54:cd:c8:
        38:c2:7e:37:ff:58:92:a4:fe:e3:d3:75:fd:f9:49:f3:49:c6:
        8c:8c:f1:2b:0d:ee:c7:f6:67:0f:59:08:90:87:e2:03:71:66:
        cf:5a:b9:9a:5e:e5:01:58:f3:22:34:a7:44:f3:e3:2d:55:fd:
        b1:d2:22:a3:a2:1c:80:cb:63:da:50:49:ed:29:62:9d:43:09:
        dc:7c
-----BEGIN CERTIFICATE-----
MIIC/DCCAmWgAwIBAgIJANbX4bSzMJHrMA0GCSqGSIb3DQEBBQUAMFkxCzAJBgNV
BAYTAkRFMQ8wDQYDVQQIEwZCYXllcm4xFzAVBgNVBAoTDldoYXRldmVyIGl0IGlz
MSAwHgYDVQQDExdJTzo6U29ja2V0OjpTU0wgRGVtbyBDQTAeFw0wODAxMDEwMDAw
MDFaFw0xOTAzMjkxNTU4NDNaMFkxCzAJBgNVBAYTAkRFMQ8wDQYDVQQIEwZCYXll
cm4xFzAVBgNVBAoTDldoYXRldmVyIGl0IGlzMSAwHgYDVQQDExdJTzo6U29ja2V0
OjpTU0wgRGVtbyBDQTCBnzANBgkqhkiG9w0BAQEFAAOBjQAwgYkCgYEA2UTn2rcp
XMXG68dHU174KM5ahcKbO4IYMsfkL4MK7+9sPHTyKTA5Nc03kDzUsvJ0wmCLBK9b
Rgvk/3WLd62mJtpF5NtEM2IrlzgiFEfiWPcb1HZ3nvWdbyQ+buw35IZwLAiYZMVW
e8aEheGXovNdr4vmfnj0fvxe7kycngW3+UECAwEAAaOByzCByDAdBgNVHQ4EFgQU
3mUBFhkuUeCaURo3UJR9OSkqQiwwgYsGA1UdIwSBgzCBgIAU3mUBFhkuUeCaURo3
UJR9OSkqQiyhXaRbMFkxCzAJBgNVBAYTAkRFMQ8wDQYDVQQIEwZCYXllcm4xFzAV
BgNVBAoTDldoYXRldmVyIGl0IGlzMSAwHgYDVQQDExdJTzo6U29ja2V0OjpTU0wg
RGVtbyBDQYIJANbX4bSzMJHrMAwGA1UdEwQFMAMBAf8wCwYDVR0PBAQDAgXgMA0G
CSqGSIb3DQEBBQUAA4GBAC4qm25JDBi6zi21/5nW0I3JALoRZGkMpJ6c6SuDhzwq
V56KCDVhRzU9y0x+6oQMaOlFtFTNyDjCfjf/WJKk/uPTdf35SfNJxoyM8SsN7sf2
Zw9ZCJCH4gNxZs9auZpe5QFY8yI0p0Tz4y1V/bHSIqOiHIDLY9pQSe0pYp1DCdx8
-----END CERTIFICATE-----
